target datalayout = "e-m:e-p270:32:32-p271:32:32-p272:64:64-i64:64-i128:128-f80:128-n8:16:32:64-S128"
target triple = "x86_64-pc-linux-gnu"

%struct._packet_info = type { ptr, ptr, i32, i32, %struct.nstime_t, %struct.nstime_t, %struct.nstime_t, i8, ptr, ptr, ptr, ptr, %struct._address, %struct._address, %struct._address, %struct._address, %struct._address, %struct._address, i32, ptr, i8, [3 x i8], %struct.anon, i32, i32, i32, i32, ptr, i8, ptr, ptr, i16, i16, i32, i32, i16, i32, i32, ptr, ptr, ptr, i8, i8, i16, i16, i16, i32, i16, i16, ptr, ptr, ptr, ptr, ptr, i32, i32 }
%struct.nstime_t = type { i64, i32 }
%struct._address = type { i32, i32, ptr, ptr }
%struct.anon = type { i8, [3 x i8] }

@hf_ua3g_command_ring = internal global i32 0, align 4
@hf_ua3g_ring_melody = internal global i32 0, align 4
@hf_ua3g_ring_cadence = internal global i32 0, align 4
@hf_ua3g_ring_speaker_level = internal global i32 0, align 4
@hf_ua3g_ring_beep_number = internal global i32 0, align 4
@hf_ua3g_ring_silent = internal global i32 0, align 4
@hf_ua3g_ring_progressive = internal global i32 0, align 4
@.str.992 = private unnamed_addr constant [4 x i8] c"Off\00", align 1
@.str.1169 = private unnamed_addr constant [3 x i8] c"On\00", align 1
@.str.1223 = private unnamed_addr constant [5 x i8] c": %s\00", align 1

; Function Attrs: null_pointer_is_valid sspstrong uwtable
define internal void @decode_ring(ptr noundef %0, ptr noundef %1, ptr noundef %2, i32 noundef %3) #0 {
  %5 = alloca ptr, align 8
  %6 = alloca ptr, align 8
  %7 = alloca ptr, align 8
  %8 = alloca i32, align 4
  %9 = alloca i8, align 1
  %10 = alloca ptr, align 8
  %11 = alloca i32, align 4
  store ptr %0, ptr %5, align 8
  store ptr %1, ptr %6, align 8
  store ptr %2, ptr %7, align 8
  store i32 %3, ptr %8, align 4
  call void @llvm.lifetime.start.p0(i64 1, ptr %9) #8
  call void @llvm.lifetime.start.p0(i64 8, ptr %10) #8
  %12 = load ptr, ptr %6, align 8
  %13 = load i32, ptr %8, align 4
  %14 = call zeroext i8 @tvb_get_uint8(ptr noundef %12, i32 noundef %13)
  store i8 %14, ptr %9, align 1
  %15 = load i8, ptr %9, align 1
  %16 = zext i8 %15 to i32
  %17 = icmp ne i32 %16, 0
  %18 = select i1 %17, ptr @.str.1169, ptr @.str.992
  store ptr %18, ptr %10, align 8
  %19 = load ptr, ptr %7, align 8
  %20 = getelementptr inbounds nuw %struct._packet_info, ptr %19, i32 0, i32 1
  %21 = load ptr, ptr %20, align 8
  %22 = load ptr, ptr %10, align 8
  call void (ptr, i32, ptr, ...) @col_append_fstr(ptr noundef %21, i32 noundef 25, ptr noundef @.str.1223, ptr noundef %22)
  %23 = load ptr, ptr %5, align 8
  %24 = icmp ne ptr %23, null
  br i1 %24, label %26, label %25

25:                                               ; preds = %4
  store i32 1, ptr %11, align 4
  br label %73

26:                                               ; preds = %4
  %27 = load ptr, ptr %5, align 8
  %28 = load i32, ptr @hf_ua3g_command_ring, align 4
  %29 = load ptr, ptr %6, align 8
  %30 = load i32, ptr %8, align 4
  %31 = call ptr @proto_tree_add_item(ptr noundef %27, i32 noundef %28, ptr noundef %29, i32 noundef %30, i32 noundef 1, i32 noundef 0)
  %32 = load i8, ptr %9, align 1
  %33 = zext i8 %32 to i32
  %34 = icmp eq i32 %33, 1
  br i1 %34, label %35, label %72

35:                                               ; preds = %26
  %36 = load ptr, ptr %5, align 8
  %37 = load i32, ptr @hf_ua3g_ring_melody, align 4
  %38 = load ptr, ptr %6, align 8
  %39 = load i32, ptr %8, align 4
  %40 = add i32 %39, 1
  %41 = call ptr @proto_tree_add_item(ptr noundef %36, i32 noundef %37, ptr noundef %38, i32 noundef %40, i32 noundef 1, i32 noundef 0)
  %42 = load ptr, ptr %5, align 8
  %43 = load i32, ptr @hf_ua3g_ring_cadence, align 4
  %44 = load ptr, ptr %6, align 8
  %45 = load i32, ptr %8, align 4
  %46 = add i32 %45, 2
  %47 = call ptr @proto_tree_add_item(ptr noundef %42, i32 noundef %43, ptr noundef %44, i32 noundef %46, i32 noundef 1, i32 noundef 0)
  %48 = load ptr, ptr %5, align 8
  %49 = load i32, ptr @hf_ua3g_ring_speaker_level, align 4
  %50 = load ptr, ptr %6, align 8
  %51 = load i32, ptr %8, align 4
  %52 = add i32 %51, 3
  %53 = call ptr @proto_tree_add_item(ptr noundef %48, i32 noundef %49, ptr noundef %50, i32 noundef %52, i32 noundef 1, i32 noundef 0)
  %54 = load ptr, ptr %5, align 8
  %55 = load i32, ptr @hf_ua3g_ring_beep_number, align 4
  %56 = load ptr, ptr %6, align 8
  %57 = load i32, ptr %8, align 4
  %58 = add i32 %57, 4
  %59 = call ptr @proto_tree_add_item(ptr noundef %54, i32 noundef %55, ptr noundef %56, i32 noundef %58, i32 noundef 1, i32 noundef 0)
  %60 = load ptr, ptr %5, align 8
  %61 = load i32, ptr @hf_ua3g_ring_silent, align 4
  %62 = load ptr, ptr %6, align 8
  %63 = load i32, ptr %8, align 4
  %64 = add i32 %63, 5
  %65 = call ptr @proto_tree_add_item(ptr noundef %60, i32 noundef %61, ptr noundef %62, i32 noundef %64, i32 noundef 1, i32 noundef 0)
  %66 = load ptr, ptr %5, align 8
  %67 = load i32, ptr @hf_ua3g_ring_progressive, align 4
  %68 = load ptr, ptr %6, align 8
  %69 = load i32, ptr %8, align 4
  %70 = add i32 %69, 5
  %71 = call ptr @proto_tree_add_item(ptr noundef %66, i32 noundef %67, ptr noundef %68, i32 noundef %70, i32 noundef 1, i32 noundef 0)
  br label %72

72:                                               ; preds = %35, %26
  store i32 0, ptr %11, align 4
  br label %73

73:                                               ; preds = %72, %25
  call void @llvm.lifetime.end.p0(i64 8, ptr %10) #8
  call void @llvm.lifetime.end.p0(i64 1, ptr %9) #8
  %74 = load i32, ptr %11, align 4
  switch i32 %74, label %76 [
    i32 0, label %75
    i32 1, label %75
  ]

75:                                               ; preds = %73, %73
  ret void

76:                                               ; preds = %73
  unreachable
}