; Function Attrs: null_pointer_is_valid sspstrong uwtable
define internal fastcc void @decode_ring(ptr noundef %0, ptr noundef %1, ptr noundef readonly captures(none) %2) unnamed_addr #0 {
  %4 = tail call zeroext i8 @tvb_get_uint8(ptr noundef %1, i32 noundef 3)
  %.not = icmp eq i8 %4, 0
  %5 = select i1 %.not, ptr @.str.992, ptr @.str.1169
  %6 = getelementptr inbounds nuw i8, ptr %2, i64 8
  %7 = load ptr, ptr %6, align 8
  tail call void (ptr, i32, ptr, ...) @col_append_fstr(ptr noundef %7, i32 noundef 25, ptr noundef nonnull @.str.1223, ptr noundef nonnull %5)
  %.not27 = icmp eq ptr %0, null
  br i1 %.not27, label %25, label %8

8:                                                ; preds = %3
  %9 = load i32, ptr @hf_ua3g_command_ring, align 4
  %10 = tail call ptr @proto_tree_add_item(ptr noundef nonnull %0, i32 noundef %9, ptr noundef %1, i32 noundef 3, i32 noundef 1, i32 noundef 0)
  %11 = icmp eq i8 %4, 1
  br i1 %11, label %12, label %25

12:                                               ; preds = %8
  %13 = load i32, ptr @hf_ua3g_ring_melody, align 4
  %14 = tail call ptr @proto_tree_add_item(ptr noundef nonnull %0, i32 noundef %13, ptr noundef %1, i32 noundef 4, i32 noundef 1, i32 noundef 0)
  %15 = load i32, ptr @hf_ua3g_ring_cadence, align 4
  %16 = tail call ptr @proto_tree_add_item(ptr noundef nonnull %0, i32 noundef %15, ptr noundef %1, i32 noundef 5, i32 noundef 1, i32 noundef 0)
  %17 = load i32, ptr @hf_ua3g_ring_speaker_level, align 4
  %18 = tail call ptr @proto_tree_add_item(ptr noundef nonnull %0, i32 noundef %17, ptr noundef %1, i32 noundef 6, i32 noundef 1, i32 noundef 0)
  %19 = load i32, ptr @hf_ua3g_ring_beep_number, align 4
  %20 = tail call ptr @proto_tree_add_item(ptr noundef nonnull %0, i32 noundef %19, ptr noundef %1, i32 noundef 7, i32 noundef 1, i32 noundef 0)
  %21 = load i32, ptr @hf_ua3g_ring_silent, align 4
  %22 = tail call ptr @proto_tree_add_item(ptr noundef nonnull %0, i32 noundef %21, ptr noundef %1, i32 noundef 8, i32 noundef 1, i32 noundef 0)
  %23 = load i32, ptr @hf_ua3g_ring_progressive, align 4
  %24 = tail call ptr @proto_tree_add_item(ptr noundef nonnull %0, i32 noundef %23, ptr noundef %1, i32 noundef 8, i32 noundef 1, i32 noundef 0)
  br label %25

25:                                               ; preds = %8, %12, %3
  ret void
}